target datalayout = "e-m:e-p270:32:32-p271:32:32-p272:64:64-i64:64-i128:128-f80:128-n8:16:32:64-S128"
target triple = "x86_64-pc-linux-gnu"

%"class.llvm::StringRef" = type { ptr, i64 }

; Function Attrs: mustprogress nounwind uwtable
define linkonce_odr hidden noundef signext i8 @_ZNK4llvm9StringRefixEm(ptr noundef nonnull align 8 dereferenceable(16) %0, i64 noundef %1) #0 comdat align 2 {
  %3 = alloca ptr, align 8
  %4 = alloca i64, align 8
  store ptr %0, ptr %3, align 8
  store i64 %1, ptr %4, align 8
  %5 = load ptr, ptr %3, align 8
  %6 = getelementptr inbounds nuw %"class.llvm::StringRef", ptr %5, i32 0, i32 0
  %7 = load ptr, ptr %6, align 8
  %8 = load i64, ptr %4, align 8
  %9 = getelementptr inbounds i8, ptr %7, i64 %8
  %10 = load i8, ptr %9, align 1
  ret i8 %10
}

; Function Attrs: mustprogress nounwind uwtable
define linkonce_odr hidden noundef i64 @_ZNK4llvm9StringRef4sizeEv(ptr noundef nonnull align 8 dereferenceable(16) %0) #0 comdat align 2 {
  %2 = alloca ptr, align 8
  store ptr %0, ptr %2, align 8
  %3 = load ptr, ptr %2, align 8
  %4 = getelementptr inbounds nuw %"class.llvm::StringRef", ptr %3, i32 0, i32 1
  %5 = load i64, ptr %4, align 8
  ret i64 %5
}

; Function Attrs: mustprogress nounwind uwtable
define dso_local noundef i32 @_ZN4llvm5APInt23getSufficientBitsNeededENS_9StringRefEh(ptr %0, i64 %1, i8 noundef zeroext %2) #0 align 2 {
  %4 = alloca i32, align 4
  %5 = alloca %"class.llvm::StringRef", align 8
  %6 = alloca i8, align 1
  %7 = alloca i64, align 8
  %8 = alloca i32, align 4
  %9 = getelementptr inbounds nuw { ptr, i64 }, ptr %5, i32 0, i32 0
  store ptr %0, ptr %9, align 8
  %10 = getelementptr inbounds nuw { ptr, i64 }, ptr %5, i32 0, i32 1
  store i64 %1, ptr %10, align 8
  store i8 %2, ptr %6, align 1
  %11 = call noundef i64 @_ZNK4llvm9StringRef4sizeEv(ptr noundef nonnull align 8 dereferenceable(16) %5)
  store i64 %11, ptr %7, align 8
  store i32 0, ptr %8, align 4
  %12 = call noundef signext i8 @_ZNK4llvm9StringRefixEm(ptr noundef nonnull align 8 dereferenceable(16) %5, i64 noundef 0)
  %13 = sext i8 %12 to i32
  %14 = icmp eq i32 %13, 45
  br i1 %14, label %19, label %15

15:                                               ; preds = %3
  %16 = call noundef signext i8 @_ZNK4llvm9StringRefixEm(ptr noundef nonnull align 8 dereferenceable(16) %5, i64 noundef 0)
  %17 = sext i8 %16 to i32
  %18 = icmp eq i32 %17, 43
  br i1 %18, label %19, label %26

19:                                               ; preds = %15, %3
  %20 = call noundef signext i8 @_ZNK4llvm9StringRefixEm(ptr noundef nonnull align 8 dereferenceable(16) %5, i64 noundef 0)
  %21 = sext i8 %20 to i32
  %22 = icmp eq i32 %21, 45
  %23 = zext i1 %22 to i32
  store i32 %23, ptr %8, align 4
  %24 = load i64, ptr %7, align 8
  %25 = add i64 %24, -1
  store i64 %25, ptr %7, align 8
  br label %26

26:                                               ; preds = %19, %15
  %27 = load i8, ptr %6, align 1
  %28 = zext i8 %27 to i32
  %29 = icmp eq i32 %28, 2
  br i1 %29, label %30, label %36

30:                                               ; preds = %26
  %31 = load i64, ptr %7, align 8
  %32 = load i32, ptr %8, align 4
  %33 = zext i32 %32 to i64
  %34 = add i64 %31, %33
  %35 = trunc i64 %34 to i32
  store i32 %35, ptr %4, align 4
  br label %90

36:                                               ; preds = %26
  %37 = load i8, ptr %6, align 1
  %38 = zext i8 %37 to i32
  %39 = icmp eq i32 %38, 8
  br i1 %39, label %40, label %47

40:                                               ; preds = %36
  %41 = load i64, ptr %7, align 8
  %42 = mul i64 %41, 3
  %43 = load i32, ptr %8, align 4
  %44 = zext i32 %43 to i64
  %45 = add i64 %42, %44
  %46 = trunc i64 %45 to i32
  store i32 %46, ptr %4, align 4
  br label %90

47:                                               ; preds = %36
  %48 = load i8, ptr %6, align 1
  %49 = zext i8 %48 to i32
  %50 = icmp eq i32 %49, 16
  br i1 %50, label %51, label %58

51:                                               ; preds = %47
  %52 = load i64, ptr %7, align 8
  %53 = mul i64 %52, 4
  %54 = load i32, ptr %8, align 4
  %55 = zext i32 %54 to i64
  %56 = add i64 %53, %55
  %57 = trunc i64 %56 to i32
  store i32 %57, ptr %4, align 4
  br label %90

58:                                               ; preds = %47
  %59 = load i8, ptr %6, align 1
  %60 = zext i8 %59 to i32
  %61 = icmp eq i32 %60, 10
  br i1 %61, label %62, label %76

62:                                               ; preds = %58
  %63 = load i64, ptr %7, align 8
  %64 = icmp eq i64 %63, 1
  br i1 %64, label %65, label %66

65:                                               ; preds = %62
  br label %70

66:                                               ; preds = %62
  %67 = load i64, ptr %7, align 8
  %68 = mul i64 %67, 64
  %69 = udiv i64 %68, 18
  br label %70

70:                                               ; preds = %66, %65
  %71 = phi i64 [ 4, %65 ], [ %69, %66 ]
  %72 = load i32, ptr %8, align 4
  %73 = zext i32 %72 to i64
  %74 = add i64 %71, %73
  %75 = trunc i64 %74 to i32
  store i32 %75, ptr %4, align 4
  br label %90

76:                                               ; preds = %58
  %77 = load i64, ptr %7, align 8
  %78 = icmp eq i64 %77, 1
  br i1 %78, label %79, label %80

79:                                               ; preds = %76
  br label %84

80:                                               ; preds = %76
  %81 = load i64, ptr %7, align 8
  %82 = mul i64 %81, 16
  %83 = udiv i64 %82, 3
  br label %84

84:                                               ; preds = %80, %79
  %85 = phi i64 [ 7, %79 ], [ %83, %80 ]
  %86 = load i32, ptr %8, align 4
  %87 = zext i32 %86 to i64
  %88 = add i64 %85, %87
  %89 = trunc i64 %88 to i32
  store i32 %89, ptr %4, align 4
  br label %90

90:                                               ; preds = %84, %70, %51, %40, %30
  %91 = load i32, ptr %4, align 4
  ret i32 %91
}