; Function Attrs: mustprogress nofree norecurse nosync nounwind willreturn memory(argmem: read) uwtable
define dso_local noundef i32 @_ZN4llvm5APInt23getSufficientBitsNeededENS_9StringRefEh(ptr readonly captures(none) %0, i64 %1, i8 noundef zeroext %2) local_unnamed_addr #7 align 2 {
  %4 = load i8, ptr %0, align 1
  %5 = icmp eq i8 %4, 45
  %6 = icmp eq i8 %4, 43
  %or.cond = or i1 %5, %6
  %7 = sext i1 %or.cond to i64
  %.018 = add i64 %1, %7
  %.0 = zext i1 %5 to i64
  %8 = add i8 %2, -2
  %9 = tail call i8 @llvm.fshl.i8(i8 %8, i8 %8, i8 7)
  switch i8 %9, label %26 [
    i8 0, label %10
    i8 3, label %12
    i8 7, label %15
    i8 4, label %18
  ]

10:                                               ; preds = %3
  %11 = add i64 %.018, %.0
  br label %34

12:                                               ; preds = %3
  %13 = mul i64 %.018, 3
  %14 = add i64 %13, %.0
  br label %34

15:                                               ; preds = %3
  %16 = shl i64 %.018, 2
  %17 = or disjoint i64 %16, %.0
  br label %34

18:                                               ; preds = %3
  %19 = icmp eq i64 %.018, 1
  br i1 %19, label %23, label %20

20:                                               ; preds = %18
  %21 = shl i64 %.018, 6
  %22 = udiv i64 %21, 18
  br label %23

23:                                               ; preds = %18, %20
  %24 = phi i64 [ %22, %20 ], [ 4, %18 ]
  %25 = add nuw nsw i64 %24, %.0
  br label %34

26:                                               ; preds = %3
  %27 = icmp eq i64 %.018, 1
  br i1 %27, label %31, label %28

28:                                               ; preds = %26
  %29 = shl i64 %.018, 4
  %30 = udiv i64 %29, 3
  br label %31

31:                                               ; preds = %26, %28
  %32 = phi i64 [ %30, %28 ], [ 7, %26 ]
  %33 = add nuw nsw i64 %32, %.0
  br label %34

34:                                               ; preds = %31, %23, %15, %12, %10
  %.019.in = phi i64 [ %11, %10 ], [ %14, %12 ], [ %17, %15 ], [ %25, %23 ], [ %33, %31 ]
  %.019 = trunc i64 %.019.in to i32
  ret i32 %.019
}